; Function Attrs: nounwind uwtable
define internal void @dissect_pnf_phy_rel11_value(ptr noundef %0, ptr noundef %1) #0 {
  %3 = alloca i32, align 4
  %4 = alloca i32, align 4
  %5 = load i32, ptr @hf_nfapi_pnf_phy_number_phy, align 4
  %6 = call ptr @ptvcursor_add_ret_uint(ptr noundef %0, i32 noundef %5, i32 noundef 2, i32 noundef 0, ptr noundef nonnull %4) #7
  %7 = load i32, ptr @ett_nfapi_pnf_phy_rel11, align 4
  %8 = load i32, ptr %4, align 4
  %.not.i = icmp eq i32 %8, 0
  br i1 %.not.i, label %dissect_array_value.exit, label %9

9:                                                ; preds = %2
  %10 = call ptr (ptr, i32, i32, ptr, ...) @ptvcursor_add_text_with_subtree(ptr noundef %0, i32 noundef -1, i32 noundef %7, ptr noundef nonnull @.str.1839, ptr noundef nonnull @.str.1880) #7
  br label %11

11:                                               ; preds = %dissect_pnf_phy_rel11_instance_value.exit, %9
  %12 = phi i32 [ 0, %9 ], [ %51, %dissect_pnf_phy_rel11_instance_value.exit ]
  %.016.i = phi i16 [ 0, %9 ], [ %50, %dissect_pnf_phy_rel11_instance_value.exit ]
  %13 = call ptr (ptr, i32, i32, ptr, ...) @ptvcursor_add_text_with_subtree(ptr noundef %0, i32 noundef -1, i32 noundef %7, ptr noundef nonnull @.str.1840, i32 noundef %12) #7
  call void @llvm.lifetime.start.p0(i64 4, ptr nonnull %3)
  %14 = load i32, ptr @hf_nfapi_pnf_phy_config_index, align 4
  %15 = call ptr @ptvcursor_add(ptr noundef %0, i32 noundef %14, i32 noundef 2, i32 noundef 0) #7
  %16 = load i32, ptr @hf_nfapi_epdcch_supported, align 4
  %17 = call ptr @ptvcursor_add_ret_uint(ptr noundef %0, i32 noundef %16, i32 noundef 2, i32 noundef 0, ptr noundef nonnull %3) #7
  %18 = load i32, ptr %3, align 4
  %19 = icmp ugt i32 %18, 1
  br i1 %19, label %20, label %22

20:                                               ; preds = %11
  %21 = call ptr (ptr, ptr, ptr, ptr, ...) @expert_add_info_format(ptr noundef %1, ptr noundef %17, ptr noundef nonnull @ei_invalid_range, ptr noundef nonnull @.str.1881) #7
  br label %22

22:                                               ; preds = %20, %11
  %23 = load i32, ptr @hf_nfapi_multi_ack_csi_reporting, align 4
  %24 = call ptr @ptvcursor_add_ret_uint(ptr noundef %0, i32 noundef %23, i32 noundef 2, i32 noundef 0, ptr noundef nonnull %3) #7
  %25 = load i32, ptr %3, align 4
  %26 = icmp ugt i32 %25, 1
  br i1 %26, label %27, label %29

27:                                               ; preds = %22
  %28 = call ptr (ptr, ptr, ptr, ptr, ...) @expert_add_info_format(ptr noundef %1, ptr noundef %24, ptr noundef nonnull @ei_invalid_range, ptr noundef nonnull @.str.1882) #7
  br label %29

29:                                               ; preds = %27, %22
  %30 = load i32, ptr @hf_nfapi_pucch_tx_diversity_with_channel_selection, align 4
  %31 = call ptr @ptvcursor_add_ret_uint(ptr noundef %0, i32 noundef %30, i32 noundef 2, i32 noundef 0, ptr noundef nonnull %3) #7
  %32 = load i32, ptr %3, align 4
  %33 = icmp ugt i32 %32, 1
  br i1 %33, label %34, label %36

34:                                               ; preds = %29
  %35 = call ptr (ptr, ptr, ptr, ptr, ...) @expert_add_info_format(ptr noundef %1, ptr noundef %31, ptr noundef nonnull @ei_invalid_range, ptr noundef nonnull @.str.1883) #7
  br label %36

36:                                               ; preds = %34, %29
  %37 = load i32, ptr @hf_nfapi_ul_comp_supported, align 4
  %38 = call ptr @ptvcursor_add_ret_uint(ptr noundef %0, i32 noundef %37, i32 noundef 2, i32 noundef 0, ptr noundef nonnull %3) #7
  %39 = load i32, ptr %3, align 4
  %40 = icmp ugt i32 %39, 1
  br i1 %40, label %41, label %43

41:                                               ; preds = %36
  %42 = call ptr (ptr, ptr, ptr, ptr, ...) @expert_add_info_format(ptr noundef %1, ptr noundef %38, ptr noundef nonnull @ei_invalid_range, ptr noundef nonnull @.str.1884) #7
  br label %43

43:                                               ; preds = %41, %36
  %44 = load i32, ptr @hf_nfapi_transmission_mode_5_supported, align 4
  %45 = call ptr @ptvcursor_add_ret_uint(ptr noundef %0, i32 noundef %44, i32 noundef 2, i32 noundef 0, ptr noundef nonnull %3) #7
  %46 = load i32, ptr %3, align 4
  %47 = icmp ugt i32 %46, 1
  br i1 %47, label %48, label %dissect_pnf_phy_rel11_instance_value.exit

48:                                               ; preds = %43
  %49 = call ptr (ptr, ptr, ptr, ptr, ...) @expert_add_info_format(ptr noundef %1, ptr noundef %45, ptr noundef nonnull @ei_invalid_range, ptr noundef nonnull @.str.1885) #7
  br label %dissect_pnf_phy_rel11_instance_value.exit

dissect_pnf_phy_rel11_instance_value.exit:        ; preds = %43, %48
  call void @llvm.lifetime.end.p0(i64 4, ptr nonnull %3)
  call void @ptvcursor_pop_subtree(ptr noundef %0) #7
  %50 = add i16 %.016.i, 1
  %51 = zext i16 %50 to i32
  %52 = icmp ugt i32 %8, %51
  br i1 %52, label %11, label %53, !llvm.loop !4

53:                                               ; preds = %dissect_pnf_phy_rel11_instance_value.exit
  call void @ptvcursor_pop_subtree(ptr noundef %0) #7
  br label %dissect_array_value.exit

dissect_array_value.exit:                         ; preds = %2, %53
  ret void
}